target datalayout = "e-m:e-p270:32:32-p271:32:32-p272:64:64-i64:64-i128:128-f80:128-n8:16:32:64-S128"
target triple = "x86_64-pc-linux-gnu"

%class.vector = type { ptr }
%"struct.(anonymous namespace)::reduce_args_tactic::populate_decl2args_proc" = type { ptr, ptr, ptr, ptr, %class.obj_map.66 }
%class.obj_map.66 = type { %class.core_hashtable.67 }
%class.core_hashtable.67 = type <{ ptr, i32, i32, i32, [4 x i8] }>
%"class.obj_map<func_decl, svector<expr *>>::obj_map_entry" = type { %"struct.obj_map<func_decl, svector<expr *>>::key_data" }
%"struct.obj_map<func_decl, svector<expr *>>::key_data" = type { ptr, %class.svector.73 }
%class.svector.73 = type { %class.vector }

; Function Attrs: mustprogress uwtable
define linkonce_odr hidden void @_ZN6vectorIP4exprLb0EjE11free_memoryEv(ptr noundef nonnull align 8 dereferenceable(8) %0) #4 comdat align 2 {
  %2 = alloca ptr, align 8
  store ptr %0, ptr %2, align 8, !tbaa !106
  %3 = load ptr, ptr %2, align 8
  %4 = getelementptr inbounds nuw %class.vector, ptr %3, i32 0, i32 0
  %5 = load ptr, ptr %4, align 8, !tbaa !108
  %6 = getelementptr inbounds i32, ptr %5, i64 -2
  call void @_ZN6memory10deallocateEPv(ptr noundef %6)
  ret void
}

; Function Attrs: mustprogress uwtable
define linkonce_odr hidden void @_ZN6vectorIP4exprLb0EjE7destroyEv(ptr noundef nonnull align 8 dereferenceable(8) %0) #4 comdat align 2 {
  %2 = alloca ptr, align 8
  store ptr %0, ptr %2, align 8, !tbaa !106
  %3 = load ptr, ptr %2, align 8
  %4 = getelementptr inbounds nuw %class.vector, ptr %3, i32 0, i32 0
  %5 = load ptr, ptr %4, align 8, !tbaa !108
  %6 = icmp ne ptr %5, null
  br i1 %6, label %7, label %8

7:                                                ; preds = %1
  call void @_ZN6vectorIP4exprLb0EjE11free_memoryEv(ptr noundef nonnull align 8 dereferenceable(8) %3)
  br label %8

8:                                                ; preds = %7, %1
  ret void
}

; Function Attrs: mustprogress nounwind uwtable
define linkonce_odr hidden void @_ZN6vectorIP4exprLb0EjED2Ev(ptr noundef nonnull align 8 dereferenceable(8) %0) unnamed_addr #6 comdat align 2 personality ptr @__gxx_personality_v0 {
  %2 = alloca ptr, align 8
  store ptr %0, ptr %2, align 8, !tbaa !106
  %3 = load ptr, ptr %2, align 8
  invoke void @_ZN6vectorIP4exprLb0EjE7destroyEv(ptr noundef nonnull align 8 dereferenceable(8) %3)
          to label %4 unwind label %5

4:                                                ; preds = %1
  ret void

5:                                                ; preds = %1
  %6 = landingpad { ptr, i32 }
          catch ptr null
  %7 = extractvalue { ptr, i32 } %6, 0
  call void @__clang_call_terminate(ptr %7) #20
  unreachable
}

; Function Attrs: inlinehint mustprogress nounwind uwtable
define linkonce_odr hidden void @_ZN7obj_mapI9func_decl7svectorIP4exprjEE8key_dataD2Ev(ptr noundef nonnull align 8 dereferenceable(16) %0) unnamed_addr #5 comdat align 2 {
  %2 = alloca ptr, align 8
  store ptr %0, ptr %2, align 8, !tbaa !418
  %3 = load ptr, ptr %2, align 8
  %4 = getelementptr inbounds nuw %"struct.obj_map<func_decl, svector<expr *>>::key_data", ptr %3, i32 0, i32 1
  call void @_ZN6vectorIP4exprLb0EjED2Ev(ptr noundef nonnull align 8 dereferenceable(8) %4) #3
  ret void
}

; Function Attrs: inlinehint mustprogress nounwind uwtable
define linkonce_odr hidden void @_ZN7obj_mapI9func_decl7svectorIP4exprjEE13obj_map_entryD2Ev(ptr noundef nonnull align 8 dereferenceable(16) %0) unnamed_addr #5 comdat align 2 {
  %2 = alloca ptr, align 8
  store ptr %0, ptr %2, align 8, !tbaa !416
  %3 = load ptr, ptr %2, align 8
  %4 = getelementptr inbounds nuw %"class.obj_map<func_decl, svector<expr *>>::obj_map_entry", ptr %3, i32 0, i32 0
  call void @_ZN7obj_mapI9func_decl7svectorIP4exprjEE8key_dataD2Ev(ptr noundef nonnull align 8 dereferenceable(16) %4) #3
  ret void
}

; Function Attrs: inlinehint mustprogress nounwind uwtable
define linkonce_odr hidden void @_ZSt10destroy_atIN7obj_mapI9func_decl7svectorIP4exprjEE13obj_map_entryEEvPT_(ptr noundef %0) #5 comdat {
  %2 = alloca ptr, align 8
  store ptr %0, ptr %2, align 8, !tbaa !416
  %3 = load ptr, ptr %2, align 8, !tbaa !416
  call void @_ZN7obj_mapI9func_decl7svectorIP4exprjEE13obj_map_entryD2Ev(ptr noundef nonnull align 8 dereferenceable(16) %3) #3
  ret void
}

; Function Attrs: inlinehint mustprogress uwtable
define linkonce_odr hidden void @_ZSt8_DestroyIN7obj_mapI9func_decl7svectorIP4exprjEE13obj_map_entryEEvPT_(ptr noundef %0) #10 comdat {
  %2 = alloca ptr, align 8
  store ptr %0, ptr %2, align 8, !tbaa !416
  %3 = load ptr, ptr %2, align 8, !tbaa !416
  call void @_ZSt10destroy_atIN7obj_mapI9func_decl7svectorIP4exprjEE13obj_map_entryEEvPT_(ptr noundef %3)
  ret void
}

; Function Attrs: mustprogress uwtable
define linkonce_odr hidden noundef ptr @_ZNSt14_Destroy_n_auxILb0EE11__destroy_nIPN7obj_mapI9func_decl7svectorIP4exprjEE13obj_map_entryEjEET_SB_T0_(ptr noundef %0, i32 noundef %1) #4 comdat align 2 {
  %3 = alloca ptr, align 8
  %4 = alloca i32, align 4
  store ptr %0, ptr %3, align 8, !tbaa !416
  store i32 %1, ptr %4, align 4, !tbaa !112
  br label %5

5:                                                ; preds = %10, %2
  %6 = load i32, ptr %4, align 4, !tbaa !112
  %7 = icmp ugt i32 %6, 0
  br i1 %7, label %8, label %15

8:                                                ; preds = %5
  %9 = load ptr, ptr %3, align 8, !tbaa !416
  call void @_ZSt8_DestroyIN7obj_mapI9func_decl7svectorIP4exprjEE13obj_map_entryEEvPT_(ptr noundef %9)
  br label %10

10:                                               ; preds = %8
  %11 = load ptr, ptr %3, align 8, !tbaa !416
  %12 = getelementptr inbounds nuw %"class.obj_map<func_decl, svector<expr *>>::obj_map_entry", ptr %11, i32 1
  store ptr %12, ptr %3, align 8, !tbaa !416
  %13 = load i32, ptr %4, align 4, !tbaa !112
  %14 = add i32 %13, -1
  store i32 %14, ptr %4, align 4, !tbaa !112
  br label %5, !llvm.loop !461

15:                                               ; preds = %5
  %16 = load ptr, ptr %3, align 8, !tbaa !416
  ret ptr %16
}

; Function Attrs: inlinehint mustprogress uwtable
define linkonce_odr hidden noundef ptr @_ZSt10_Destroy_nIPN7obj_mapI9func_decl7svectorIP4exprjEE13obj_map_entryEjET_S9_T0_(ptr noundef %0, i32 noundef %1) #10 comdat {
  %3 = alloca ptr, align 8
  %4 = alloca i32, align 4
  store ptr %0, ptr %3, align 8, !tbaa !416
  store i32 %1, ptr %4, align 4, !tbaa !112
  %5 = load ptr, ptr %3, align 8, !tbaa !416
  %6 = load i32, ptr %4, align 4, !tbaa !112
  %7 = call noundef ptr @_ZNSt14_Destroy_n_auxILb0EE11__destroy_nIPN7obj_mapI9func_decl7svectorIP4exprjEE13obj_map_entryEjEET_SB_T0_(ptr noundef %5, i32 noundef %6)
  ret ptr %7
}

; Function Attrs: inlinehint mustprogress uwtable
define linkonce_odr hidden noundef ptr @_ZSt9destroy_nIPN7obj_mapI9func_decl7svectorIP4exprjEE13obj_map_entryEjET_S9_T0_(ptr noundef %0, i32 noundef %1) #10 comdat {
  %3 = alloca ptr, align 8
  %4 = alloca i32, align 4
  store ptr %0, ptr %3, align 8, !tbaa !416
  store i32 %1, ptr %4, align 4, !tbaa !112
  %5 = load ptr, ptr %3, align 8, !tbaa !416
  %6 = load i32, ptr %4, align 4, !tbaa !112
  %7 = call noundef ptr @_ZSt10_Destroy_nIPN7obj_mapI9func_decl7svectorIP4exprjEE13obj_map_entryEjET_S9_T0_(ptr noundef %5, i32 noundef %6)
  ret ptr %7
}

; Function Attrs: mustprogress uwtable
define linkonce_odr hidden void @_Z12dealloc_vectIN7obj_mapI9func_decl7svectorIP4exprjEE13obj_map_entryEEvPT_j(ptr noundef %0, i32 noundef %1) #4 comdat {
  %3 = alloca ptr, align 8
  %4 = alloca i32, align 4
  store ptr %0, ptr %3, align 8, !tbaa !416
  store i32 %1, ptr %4, align 4, !tbaa !112
  %5 = load ptr, ptr %3, align 8, !tbaa !416
  %6 = icmp eq ptr %5, null
  br i1 %6, label %7, label %8

7:                                                ; preds = %2
  br label %13

8:                                                ; preds = %2
  %9 = load ptr, ptr %3, align 8, !tbaa !416
  %10 = load i32, ptr %4, align 4, !tbaa !112
  %11 = call noundef ptr @_ZSt9destroy_nIPN7obj_mapI9func_decl7svectorIP4exprjEE13obj_map_entryEjET_S9_T0_(ptr noundef %9, i32 noundef %10)
  %12 = load ptr, ptr %3, align 8, !tbaa !416
  call void @_ZN6memory10deallocateEPv(ptr noundef %12)
  br label %13

13:                                               ; preds = %8, %7
  ret void
}

; Function Attrs: mustprogress uwtable
define linkonce_odr hidden void @_ZN14core_hashtableIN7obj_mapI9func_decl7svectorIP4exprjEE13obj_map_entryE8obj_hashINS6_8key_dataEE10default_eqIS9_EE12delete_tableEv(ptr noundef nonnull align 8 dereferenceable(20) %0) #4 comdat align 2 {
  %2 = alloca ptr, align 8
  store ptr %0, ptr %2, align 8, !tbaa !404
  %3 = load ptr, ptr %2, align 8
  %4 = getelementptr inbounds nuw %class.core_hashtable.67, ptr %3, i32 0, i32 0
  %5 = load ptr, ptr %4, align 8, !tbaa !410
  %6 = getelementptr inbounds nuw %class.core_hashtable.67, ptr %3, i32 0, i32 1
  %7 = load i32, ptr %6, align 8, !tbaa !413
  call void @_Z12dealloc_vectIN7obj_mapI9func_decl7svectorIP4exprjEE13obj_map_entryEEvPT_j(ptr noundef %5, i32 noundef %7)
  %8 = getelementptr inbounds nuw %class.core_hashtable.67, ptr %3, i32 0, i32 0
  store ptr null, ptr %8, align 8, !tbaa !410
  ret void
}

; Function Attrs: mustprogress nounwind uwtable
define linkonce_odr hidden void @_ZN14core_hashtableIN7obj_mapI9func_decl7svectorIP4exprjEE13obj_map_entryE8obj_hashINS6_8key_dataEE10default_eqIS9_EED2Ev(ptr noundef nonnull align 8 dereferenceable(20) %0) unnamed_addr #6 comdat align 2 personality ptr @__gxx_personality_v0 {
  %2 = alloca ptr, align 8
  store ptr %0, ptr %2, align 8, !tbaa !404
  %3 = load ptr, ptr %2, align 8
  invoke void @_ZN14core_hashtableIN7obj_mapI9func_decl7svectorIP4exprjEE13obj_map_entryE8obj_hashINS6_8key_dataEE10default_eqIS9_EE12delete_tableEv(ptr noundef nonnull align 8 dereferenceable(20) %3)
          to label %4 unwind label %5

4:                                                ; preds = %1
  ret void

5:                                                ; preds = %1
  %6 = landingpad { ptr, i32 }
          catch ptr null
  %7 = extractvalue { ptr, i32 } %6, 0
  call void @__clang_call_terminate(ptr %7) #20
  unreachable
}

; Function Attrs: inlinehint mustprogress nounwind uwtable
define linkonce_odr hidden void @_ZN7obj_mapI9func_decl7svectorIP4exprjEED2Ev(ptr noundef nonnull align 8 dereferenceable(24) %0) unnamed_addr #5 comdat align 2 {
  %2 = alloca ptr, align 8
  store ptr %0, ptr %2, align 8, !tbaa !402
  %3 = load ptr, ptr %2, align 8
  %4 = getelementptr inbounds nuw %class.obj_map.66, ptr %3, i32 0, i32 0
  call void @_ZN14core_hashtableIN7obj_mapI9func_decl7svectorIP4exprjEE13obj_map_entryE8obj_hashINS6_8key_dataEE10default_eqIS9_EED2Ev(ptr noundef nonnull align 8 dereferenceable(20) %4) #3
  ret void
}

; Function Attrs: inlinehint mustprogress nounwind uwtable
define internal void @_ZN12_GLOBAL__N_118reduce_args_tactic23populate_decl2args_procD2Ev(ptr noundef nonnull align 8 dereferenceable(56) %0) unnamed_addr #5 align 2 {
  %2 = alloca ptr, align 8
  store ptr %0, ptr %2, align 8, !tbaa !386
  %3 = load ptr, ptr %2, align 8
  %4 = getelementptr inbounds nuw %"struct.(anonymous namespace)::reduce_args_tactic::populate_decl2args_proc", ptr %3, i32 0, i32 4
  call void @_ZN7obj_mapI9func_decl7svectorIP4exprjEED2Ev(ptr noundef nonnull align 8 dereferenceable(24) %4) #3
  ret void
}