; Function Attrs: inlinehint mustprogress nounwind uwtable
define internal fastcc void @_ZN12_GLOBAL__N_118reduce_args_tactic23populate_decl2args_procD2Ev(ptr noundef nonnull align 8 captures(none) dereferenceable(56) %0) unnamed_addr #5 align 2 personality ptr @__gxx_personality_v0 {
  %2 = getelementptr inbounds nuw i8, ptr %0, i64 32
  %3 = load ptr, ptr %2, align 8, !tbaa !189
  %4 = icmp eq ptr %3, null
  br i1 %4, label %_ZN7obj_mapI9func_decl7svectorIP4exprjEED2Ev.exit, label %5

5:                                                ; preds = %1
  %6 = getelementptr inbounds nuw i8, ptr %0, i64 40
  %7 = load i32, ptr %6, align 8, !tbaa !192
  %.not6.i.i.i.i.i.i.i = icmp eq i32 %7, 0
  br i1 %.not6.i.i.i.i.i.i.i, label %_ZSt9destroy_nIPN7obj_mapI9func_decl7svectorIP4exprjEE13obj_map_entryEjET_S9_T0_.exit.i.i.i.i, label %.lr.ph.i.i.i.i.i.i.i

.lr.ph.i.i.i.i.i.i.i:                             ; preds = %5, %_ZSt8_DestroyIN7obj_mapI9func_decl7svectorIP4exprjEE13obj_map_entryEEvPT_.exit.i.i.i.i.i.i.i
  %.08.i.i.i.i.i.i.i = phi i32 [ %16, %_ZSt8_DestroyIN7obj_mapI9func_decl7svectorIP4exprjEE13obj_map_entryEEvPT_.exit.i.i.i.i.i.i.i ], [ %7, %5 ]
  %.047.i.i.i.i.i.i.i = phi ptr [ %15, %_ZSt8_DestroyIN7obj_mapI9func_decl7svectorIP4exprjEE13obj_map_entryEEvPT_.exit.i.i.i.i.i.i.i ], [ %3, %5 ]
  %8 = getelementptr inbounds nuw i8, ptr %.047.i.i.i.i.i.i.i, i64 8
  %9 = load ptr, ptr %8, align 8, !tbaa !14
  %.not.i.i.i.i.i.i.i.i.i.i.i.i.i = icmp eq ptr %9, null
  br i1 %.not.i.i.i.i.i.i.i.i.i.i.i.i.i, label %_ZSt8_DestroyIN7obj_mapI9func_decl7svectorIP4exprjEE13obj_map_entryEEvPT_.exit.i.i.i.i.i.i.i, label %10

10:                                               ; preds = %.lr.ph.i.i.i.i.i.i.i
  %11 = getelementptr inbounds i8, ptr %9, i64 -8
  invoke void @_ZN6memory10deallocateEPv(ptr noundef nonnull %11)
          to label %_ZSt8_DestroyIN7obj_mapI9func_decl7svectorIP4exprjEE13obj_map_entryEEvPT_.exit.i.i.i.i.i.i.i unwind label %12

12:                                               ; preds = %10
  %13 = landingpad { ptr, i32 }
          catch ptr null
  %14 = extractvalue { ptr, i32 } %13, 0
  tail call void @__clang_call_terminate(ptr %14) #21
  unreachable

_ZSt8_DestroyIN7obj_mapI9func_decl7svectorIP4exprjEE13obj_map_entryEEvPT_.exit.i.i.i.i.i.i.i: ; preds = %10, %.lr.ph.i.i.i.i.i.i.i
  %15 = getelementptr inbounds nuw i8, ptr %.047.i.i.i.i.i.i.i, i64 16
  %16 = add i32 %.08.i.i.i.i.i.i.i, -1
  %.not.i.i.i.i.i.i.i = icmp eq i32 %16, 0
  br i1 %.not.i.i.i.i.i.i.i, label %_ZSt9destroy_nIPN7obj_mapI9func_decl7svectorIP4exprjEE13obj_map_entryEjET_S9_T0_.exit.i.i.i.i, label %.lr.ph.i.i.i.i.i.i.i, !llvm.loop !212

_ZSt9destroy_nIPN7obj_mapI9func_decl7svectorIP4exprjEE13obj_map_entryEjET_S9_T0_.exit.i.i.i.i: ; preds = %_ZSt8_DestroyIN7obj_mapI9func_decl7svectorIP4exprjEE13obj_map_entryEEvPT_.exit.i.i.i.i.i.i.i, %5
  invoke void @_ZN6memory10deallocateEPv(ptr noundef nonnull %3)
          to label %_ZN7obj_mapI9func_decl7svectorIP4exprjEED2Ev.exit unwind label %17

17:                                               ; preds = %_ZSt9destroy_nIPN7obj_mapI9func_decl7svectorIP4exprjEE13obj_map_entryEjET_S9_T0_.exit.i.i.i.i
  %18 = landingpad { ptr, i32 }
          catch ptr null
  %19 = extractvalue { ptr, i32 } %18, 0
  tail call void @__clang_call_terminate(ptr %19) #21
  unreachable

_ZN7obj_mapI9func_decl7svectorIP4exprjEED2Ev.exit: ; preds = %1, %_ZSt9destroy_nIPN7obj_mapI9func_decl7svectorIP4exprjEE13obj_map_entryEjET_S9_T0_.exit.i.i.i.i
  store ptr null, ptr %2, align 8, !tbaa !189
  ret void
}